; Function Attrs: mustprogress uwtable
define noundef double @_ZNK8QuantLib15InflationCoupon11indexFixingEv(ptr noundef nonnull align 8 dereferenceable(160) %this) unnamed_addr #8 align 2 {
entry:
  %ref.tmp = alloca %"class.QuantLib::Date", align 8
  %index_ = getelementptr inbounds nuw i8, ptr %this, i64 104
  %0 = load ptr, ptr %index_, align 8, !tbaa !50
  %cmp.not.i = icmp eq ptr %0, null
  br i1 %cmp.not.i, label %cond.false.i, label %_ZNK5boost10shared_ptrIN8QuantLib14InflationIndexEEptEv.exit, !prof !76

cond.false.i:                                     ; preds = %entry
  tail call void @_ZN5boost16assertion_failedEPKcS1_S1_l(ptr noundef nonnull @.str.10, ptr noundef nonnull @__PRETTY_FUNCTION__._ZNK5boost10shared_ptrIN8QuantLib14InflationIndexEEptEv, ptr noundef nonnull @.str.11, i64 noundef 784)
  %.pre.i = load ptr, ptr %index_, align 8, !tbaa !50
  br label %_ZNK5boost10shared_ptrIN8QuantLib14InflationIndexEEptEv.exit

_ZNK5boost10shared_ptrIN8QuantLib14InflationIndexEEptEv.exit: ; preds = %entry, %cond.false.i
  %1 = phi ptr [ %0, %entry ], [ %.pre.i, %cond.false.i ]
  call void @llvm.lifetime.start.p0(i64 8, ptr nonnull %ref.tmp) #26
  %vtable = load ptr, ptr %this, align 8, !tbaa !33
  %vfn = getelementptr inbounds i8, ptr %vtable, i64 96
  %2 = load ptr, ptr %vfn, align 8
  %call2 = tail call i64 %2(ptr noundef nonnull align 8 dereferenceable(160) %this)
  store i64 %call2, ptr %ref.tmp, align 8
  %vtable3 = load ptr, ptr %1, align 8, !tbaa !33
  %vfn4 = getelementptr inbounds i8, ptr %vtable3, i64 40
  %3 = load ptr, ptr %vfn4, align 8
  %call5 = call noundef double %3(ptr noundef nonnull align 8 dereferenceable(232) %1, ptr noundef nonnull align 8 dereferenceable(8) %ref.tmp, i1 noundef zeroext false)
  call void @llvm.lifetime.end.p0(i64 8, ptr nonnull %ref.tmp) #26
  ret double %call5
}